target datalayout = "e-m:e-p270:32:32-p271:32:32-p272:64:64-i64:64-f80:128-n8:16:32:64-S128"
target triple = "x86_64-pc-linux-gnu"

@.str = private unnamed_addr constant [3 x i8] c"%d\00", align 1
@.str.1 = private unnamed_addr constant [9 x i8] c"%d %d %d\00", align 1
@.str.2 = private unnamed_addr constant [29 x i8] c"(%d,%d,%d)-(%d,%d,%d)=%.2lf\0A\00", align 1

; Function Attrs: noinline nounwind uwtable
define dso_local i32 @main() #0 {
  %1 = alloca i32, align 4
  %2 = alloca i32, align 4
  %3 = alloca i32, align 4
  %4 = alloca [101 x i32], align 16
  %5 = alloca i32, align 4
  %6 = alloca i32, align 4
  %7 = alloca [101 x i32], align 16
  %8 = alloca [101 x i32], align 16
  %9 = alloca [50 x i32], align 16
  %10 = alloca [50 x i32], align 16
  %11 = alloca i32, align 4
  %12 = alloca [50 x double], align 16
  %13 = alloca double, align 8
  store i32 0, i32* %1, align 4
  store i32 0, i32* %3, align 4
  store i32 0, i32* %5, align 4
  br label %14

14:                                               ; preds = %21, %0
  %15 = load i32, i32* %5, align 4
  %16 = icmp slt i32 %15, 50
  br i1 %16, label %17, label %24

17:                                               ; preds = %14
  %18 = load i32, i32* %5, align 4
  %19 = sext i32 %18 to i64
  %20 = getelementptr inbounds [50 x double], [50 x double]* %12, i64 0, i64 %19
  store double 0.000000e+00, double* %20, align 8
  br label %21

21:                                               ; preds = %17
  %22 = load i32, i32* %5, align 4
  %23 = add nsw i32 %22, 1
  store i32 %23, i32* %5, align 4
  br label %14

24:                                               ; preds = %14
  %25 = call i32 (i8*, ...) @__isoc99_scanf(i8* getelementptr inbounds ([3 x i8], [3 x i8]* @.str, i64 0, i64 0), i32* %2)
  store i32 0, i32* %5, align 4
  br label %26

26:                                               ; preds = %41, %24
  %27 = load i32, i32* %5, align 4
  %28 = load i32, i32* %2, align 4
  %29 = icmp slt i32 %27, %28
  br i1 %29, label %30, label %44

30:                                               ; preds = %26
  %31 = load i32, i32* %5, align 4
  %32 = sext i32 %31 to i64
  %33 = getelementptr inbounds [101 x i32], [101 x i32]* %4, i64 0, i64 %32
  %34 = load i32, i32* %5, align 4
  %35 = sext i32 %34 to i64
  %36 = getelementptr inbounds [101 x i32], [101 x i32]* %7, i64 0, i64 %35
  %37 = load i32, i32* %5, align 4
  %38 = sext i32 %37 to i64
  %39 = getelementptr inbounds [101 x i32], [101 x i32]* %8, i64 0, i64 %38
  %40 = call i32 (i8*, ...) @__isoc99_scanf(i8* getelementptr inbounds ([9 x i8], [9 x i8]* @.str.1, i64 0, i64 0), i32* %33, i32* %36, i32* %39)
  br label %41

41:                                               ; preds = %30
  %42 = load i32, i32* %5, align 4
  %43 = add nsw i32 %42, 1
  store i32 %43, i32* %5, align 4
  br label %26

44:                                               ; preds = %26
  store i32 0, i32* %6, align 4
  br label %45

45:                                               ; preds = %136, %44
  %46 = load i32, i32* %6, align 4
  %47 = load i32, i32* %2, align 4
  %48 = sub nsw i32 %47, 1
  %49 = icmp slt i32 %46, %48
  br i1 %49, label %50, label %139

50:                                               ; preds = %45
  %51 = load i32, i32* %6, align 4
  %52 = add nsw i32 %51, 1
  store i32 %52, i32* %5, align 4
  br label %53

53:                                               ; preds = %132, %50
  %54 = load i32, i32* %5, align 4
  %55 = load i32, i32* %2, align 4
  %56 = icmp slt i32 %54, %55
  br i1 %56, label %57, label %135

57:                                               ; preds = %53
  %58 = load i32, i32* %6, align 4
  %59 = sext i32 %58 to i64
  %60 = getelementptr inbounds [101 x i32], [101 x i32]* %4, i64 0, i64 %59
  %61 = load i32, i32* %60, align 4
  %62 = load i32, i32* %5, align 4
  %63 = sext i32 %62 to i64
  %64 = getelementptr inbounds [101 x i32], [101 x i32]* %4, i64 0, i64 %63
  %65 = load i32, i32* %64, align 4
  %66 = sub nsw i32 %61, %65
  %67 = load i32, i32* %6, align 4
  %68 = sext i32 %67 to i64
  %69 = getelementptr inbounds [101 x i32], [101 x i32]* %4, i64 0, i64 %68
  %70 = load i32, i32* %69, align 4
  %71 = load i32, i32* %5, align 4
  %72 = sext i32 %71 to i64
  %73 = getelementptr inbounds [101 x i32], [101 x i32]* %4, i64 0, i64 %72
  %74 = load i32, i32* %73, align 4
  %75 = sub nsw i32 %70, %74
  %76 = mul nsw i32 %66, %75
  %77 = load i32, i32* %6, align 4
  %78 = sext i32 %77 to i64
  %79 = getelementptr inbounds [101 x i32], [101 x i32]* %7, i64 0, i64 %78
  %80 = load i32, i32* %79, align 4
  %81 = load i32, i32* %5, align 4
  %82 = sext i32 %81 to i64
  %83 = getelementptr inbounds [101 x i32], [101 x i32]* %7, i64 0, i64 %82
  %84 = load i32, i32* %83, align 4
  %85 = sub nsw i32 %80, %84
  %86 = load i32, i32* %6, align 4
  %87 = sext i32 %86 to i64
  %88 = getelementptr inbounds [101 x i32], [101 x i32]* %7, i64 0, i64 %87
  %89 = load i32, i32* %88, align 4
  %90 = load i32, i32* %5, align 4
  %91 = sext i32 %90 to i64
  %92 = getelementptr inbounds [101 x i32], [101 x i32]* %7, i64 0, i64 %91
  %93 = load i32, i32* %92, align 4
  %94 = sub nsw i32 %89, %93
  %95 = mul nsw i32 %85, %94
  %96 = add nsw i32 %76, %95
  %97 = load i32, i32* %6, align 4
  %98 = sext i32 %97 to i64
  %99 = getelementptr inbounds [101 x i32], [101 x i32]* %8, i64 0, i64 %98
  %100 = load i32, i32* %99, align 4
  %101 = load i32, i32* %5, align 4
  %102 = sext i32 %101 to i64
  %103 = getelementptr inbounds [101 x i32], [101 x i32]* %8, i64 0, i64 %102
  %104 = load i32, i32* %103, align 4
  %105 = sub nsw i32 %100, %104
  %106 = load i32, i32* %6, align 4
  %107 = sext i32 %106 to i64
  %108 = getelementptr inbounds [101 x i32], [101 x i32]* %8, i64 0, i64 %107
  %109 = load i32, i32* %108, align 4
  %110 = load i32, i32* %5, align 4
  %111 = sext i32 %110 to i64
  %112 = getelementptr inbounds [101 x i32], [101 x i32]* %8, i64 0, i64 %111
  %113 = load i32, i32* %112, align 4
  %114 = sub nsw i32 %109, %113
  %115 = mul nsw i32 %105, %114
  %116 = add nsw i32 %96, %115
  %117 = sitofp i32 %116 to double
  %118 = call double @sqrt(double %117) #3
  %119 = load i32, i32* %3, align 4
  %120 = sext i32 %119 to i64
  %121 = getelementptr inbounds [50 x double], [50 x double]* %12, i64 0, i64 %120
  store double %118, double* %121, align 8
  %122 = load i32, i32* %6, align 4
  %123 = load i32, i32* %3, align 4
  %124 = sext i32 %123 to i64
  %125 = getelementptr inbounds [50 x i32], [50 x i32]* %9, i64 0, i64 %124
  store i32 %122, i32* %125, align 4
  %126 = load i32, i32* %5, align 4
  %127 = load i32, i32* %3, align 4
  %128 = sext i32 %127 to i64
  %129 = getelementptr inbounds [50 x i32], [50 x i32]* %10, i64 0, i64 %128
  store i32 %126, i32* %129, align 4
  %130 = load i32, i32* %3, align 4
  %131 = add nsw i32 %130, 1
  store i32 %131, i32* %3, align 4
  br label %132

132:                                              ; preds = %57
  %133 = load i32, i32* %5, align 4
  %134 = add nsw i32 %133, 1
  store i32 %134, i32* %5, align 4
  br label %53

135:                                              ; preds = %53
  br label %136

136:                                              ; preds = %135
  %137 = load i32, i32* %6, align 4
  %138 = add nsw i32 %137, 1
  store i32 %138, i32* %6, align 4
  br label %45

139:                                              ; preds = %45
  store i32 0, i32* %3, align 4
  br label %140

140:                                              ; preds = %226, %139
  %141 = load i32, i32* %3, align 4
  %142 = load i32, i32* %2, align 4
  %143 = load i32, i32* %2, align 4
  %144 = sub nsw i32 %143, 1
  %145 = mul nsw i32 %142, %144
  %146 = sdiv i32 %145, 2
  %147 = icmp slt i32 %141, %146
  br i1 %147, label %148, label %229

148:                                              ; preds = %140
  store i32 0, i32* %5, align 4
  br label %149

149:                                              ; preds = %222, %148
  %150 = load i32, i32* %5, align 4
  %151 = load i32, i32* %2, align 4
  %152 = load i32, i32* %2, align 4
  %153 = sub nsw i32 %152, 1
  %154 = mul nsw i32 %151, %153
  %155 = sdiv i32 %154, 2
  %156 = sub nsw i32 %155, 1
  %157 = icmp slt i32 %150, %156
  br i1 %157, label %158, label %225

158:                                              ; preds = %149
  %159 = load i32, i32* %5, align 4
  %160 = sext i32 %159 to i64
  %161 = getelementptr inbounds [50 x double], [50 x double]* %12, i64 0, i64 %160
  %162 = load double, double* %161, align 8
  %163 = load i32, i32* %5, align 4
  %164 = add nsw i32 %163, 1
  %165 = sext i32 %164 to i64
  %166 = getelementptr inbounds [50 x double], [50 x double]* %12, i64 0, i64 %165
  %167 = load double, double* %166, align 8
  %168 = fcmp olt double %162, %167
  br i1 %168, label %169, label %221

169:                                              ; preds = %158
  %170 = load i32, i32* %5, align 4
  %171 = sext i32 %170 to i64
  %172 = getelementptr inbounds [50 x double], [50 x double]* %12, i64 0, i64 %171
  %173 = load double, double* %172, align 8
  store double %173, double* %13, align 8
  %174 = load i32, i32* %5, align 4
  %175 = add nsw i32 %174, 1
  %176 = sext i32 %175 to i64
  %177 = getelementptr inbounds [50 x double], [50 x double]* %12, i64 0, i64 %176
  %178 = load double, double* %177, align 8
  %179 = load i32, i32* %5, align 4
  %180 = sext i32 %179 to i64
  %181 = getelementptr inbounds [50 x double], [50 x double]* %12, i64 0, i64 %180
  store double %178, double* %181, align 8
  %182 = load double, double* %13, align 8
  %183 = load i32, i32* %5, align 4
  %184 = add nsw i32 %183, 1
  %185 = sext i32 %184 to i64
  %186 = getelementptr inbounds [50 x double], [50 x double]* %12, i64 0, i64 %185
  store double %182, double* %186, align 8
  %187 = load i32, i32* %5, align 4
  %188 = sext i32 %187 to i64
  %189 = getelementptr inbounds [50 x i32], [50 x i32]* %9, i64 0, i64 %188
  %190 = load i32, i32* %189, align 4
  store i32 %190, i32* %11, align 4
  %191 = load i32, i32* %5, align 4
  %192 = add nsw i32 %191, 1
  %193 = sext i32 %192 to i64
  %194 = getelementptr inbounds [50 x i32], [50 x i32]* %9, i64 0, i64 %193
  %195 = load i32, i32* %194, align 4
  %196 = load i32, i32* %5, align 4
  %197 = sext i32 %196 to i64
  %198 = getelementptr inbounds [50 x i32], [50 x i32]* %9, i64 0, i64 %197
  store i32 %195, i32* %198, align 4
  %199 = load i32, i32* %11, align 4
  %200 = load i32, i32* %5, align 4
  %201 = add nsw i32 %200, 1
  %202 = sext i32 %201 to i64
  %203 = getelementptr inbounds [50 x i32], [50 x i32]* %9, i64 0, i64 %202
  store i32 %199, i32* %203, align 4
  %204 = load i32, i32* %5, align 4
  %205 = sext i32 %204 to i64
  %206 = getelementptr inbounds [50 x i32], [50 x i32]* %10, i64 0, i64 %205
  %207 = load i32, i32* %206, align 4
  store i32 %207, i32* %11, align 4
  %208 = load i32, i32* %5, align 4
  %209 = add nsw i32 %208, 1
  %210 = sext i32 %209 to i64
  %211 = getelementptr inbounds [50 x i32], [50 x i32]* %10, i64 0, i64 %210
  %212 = load i32, i32* %211, align 4
  %213 = load i32, i32* %5, align 4
  %214 = sext i32 %213 to i64
  %215 = getelementptr inbounds [50 x i32], [50 x i32]* %10, i64 0, i64 %214
  store i32 %212, i32* %215, align 4
  %216 = load i32, i32* %11, align 4
  %217 = load i32, i32* %5, align 4
  %218 = add nsw i32 %217, 1
  %219 = sext i32 %218 to i64
  %220 = getelementptr inbounds [50 x i32], [50 x i32]* %10, i64 0, i64 %219
  store i32 %216, i32* %220, align 4
  br label %221

221:                                              ; preds = %169, %158
  br label %222

222:                                              ; preds = %221
  %223 = load i32, i32* %5, align 4
  %224 = add nsw i32 %223, 1
  store i32 %224, i32* %5, align 4
  br label %149

225:                                              ; preds = %149
  br label %226

226:                                              ; preds = %225
  %227 = load i32, i32* %3, align 4
  %228 = add nsw i32 %227, 1
  store i32 %228, i32* %3, align 4
  br label %140

229:                                              ; preds = %140
  store i32 0, i32* %3, align 4
  br label %230

230:                                              ; preds = %286, %229
  %231 = load i32, i32* %3, align 4
  %232 = load i32, i32* %2, align 4
  %233 = load i32, i32* %2, align 4
  %234 = sub nsw i32 %233, 1
  %235 = mul nsw i32 %232, %234
  %236 = sdiv i32 %235, 2
  %237 = icmp slt i32 %231, %236
  br i1 %237, label %238, label %289

238:                                              ; preds = %230
  %239 = load i32, i32* %3, align 4
  %240 = sext i32 %239 to i64
  %241 = getelementptr inbounds [50 x i32], [50 x i32]* %9, i64 0, i64 %240
  %242 = load i32, i32* %241, align 4
  %243 = sext i32 %242 to i64
  %244 = getelementptr inbounds [101 x i32], [101 x i32]* %4, i64 0, i64 %243
  %245 = load i32, i32* %244, align 4
  %246 = load i32, i32* %3, align 4
  %247 = sext i32 %246 to i64
  %248 = getelementptr inbounds [50 x i32], [50 x i32]* %9, i64 0, i64 %247
  %249 = load i32, i32* %248, align 4
  %250 = sext i32 %249 to i64
  %251 = getelementptr inbounds [101 x i32], [101 x i32]* %7, i64 0, i64 %250
  %252 = load i32, i32* %251, align 4
  %253 = load i32, i32* %3, align 4
  %254 = sext i32 %253 to i64
  %255 = getelementptr inbounds [50 x i32], [50 x i32]* %9, i64 0, i64 %254
  %256 = load i32, i32* %255, align 4
  %257 = sext i32 %256 to i64
  %258 = getelementptr inbounds [101 x i32], [101 x i32]* %8, i64 0, i64 %257
  %259 = load i32, i32* %258, align 4
  %260 = load i32, i32* %3, align 4
  %261 = sext i32 %260 to i64
  %262 = getelementptr inbounds [50 x i32], [50 x i32]* %10, i64 0, i64 %261
  %263 = load i32, i32* %262, align 4
  %264 = sext i32 %263 to i64
  %265 = getelementptr inbounds [101 x i32], [101 x i32]* %4, i64 0, i64 %264
  %266 = load i32, i32* %265, align 4
  %267 = load i32, i32* %3, align 4
  %268 = sext i32 %267 to i64
  %269 = getelementptr inbounds [50 x i32], [50 x i32]* %10, i64 0, i64 %268
  %270 = load i32, i32* %269, align 4
  %271 = sext i32 %270 to i64
  %272 = getelementptr inbounds [101 x i32], [101 x i32]* %7, i64 0, i64 %271
  %273 = load i32, i32* %272, align 4
  %274 = load i32, i32* %3, align 4
  %275 = sext i32 %274 to i64
  %276 = getelementptr inbounds [50 x i32], [50 x i32]* %10, i64 0, i64 %275
  %277 = load i32, i32* %276, align 4
  %278 = sext i32 %277 to i64
  %279 = getelementptr inbounds [101 x i32], [101 x i32]* %8, i64 0, i64 %278
  %280 = load i32, i32* %279, align 4
  %281 = load i32, i32* %3, align 4
  %282 = sext i32 %281 to i64
  %283 = getelementptr inbounds [50 x double], [50 x double]* %12, i64 0, i64 %282
  %284 = load double, double* %283, align 8
  %285 = call i32 (i8*, ...) @printf(i8* getelementptr inbounds ([29 x i8], [29 x i8]* @.str.2, i64 0, i64 0), i32 %245, i32 %252, i32 %259, i32 %266, i32 %273, i32 %280, double %284)
  br label %286

286:                                              ; preds = %238
  %287 = load i32, i32* %3, align 4
  %288 = add nsw i32 %287, 1
  store i32 %288, i32* %3, align 4
  br label %230

289:                                              ; preds = %230
  ret i32 0
}